target datalayout = "e-m:e-p270:32:32-p271:32:32-p272:64:64-i64:64-i128:128-f80:128-n8:16:32:64-S128"
target triple = "x86_64-pc-linux-gnu"

%struct.PartitionHashBound = type { i32, i32, i32 }

; Function Attrs: nounwind uwtable
define internal i32 @partition_hbound_cmp(i32 noundef %0, i32 noundef %1, i32 noundef %2, i32 noundef %3) #0 {
  %5 = alloca i32, align 4
  %6 = alloca i32, align 4
  %7 = alloca i32, align 4
  %8 = alloca i32, align 4
  %9 = alloca i32, align 4
  store i32 %0, ptr %6, align 4
  store i32 %1, ptr %7, align 4
  store i32 %2, ptr %8, align 4
  store i32 %3, ptr %9, align 4
  %10 = load i32, ptr %6, align 4
  %11 = load i32, ptr %8, align 4
  %12 = icmp slt i32 %10, %11
  br i1 %12, label %13, label %14

13:                                               ; preds = %4
  store i32 -1, ptr %5, align 4
  br label %33

14:                                               ; preds = %4
  %15 = load i32, ptr %6, align 4
  %16 = load i32, ptr %8, align 4
  %17 = icmp sgt i32 %15, %16
  br i1 %17, label %18, label %19

18:                                               ; preds = %14
  store i32 1, ptr %5, align 4
  br label %33

19:                                               ; preds = %14
  %20 = load i32, ptr %6, align 4
  %21 = load i32, ptr %8, align 4
  %22 = icmp eq i32 %20, %21
  br i1 %22, label %23, label %32

23:                                               ; preds = %19
  %24 = load i32, ptr %7, align 4
  %25 = load i32, ptr %9, align 4
  %26 = icmp ne i32 %24, %25
  br i1 %26, label %27, label %32

27:                                               ; preds = %23
  %28 = load i32, ptr %7, align 4
  %29 = load i32, ptr %9, align 4
  %30 = icmp sgt i32 %28, %29
  %31 = select i1 %30, i32 1, i32 -1
  store i32 %31, ptr %5, align 4
  br label %33

32:                                               ; preds = %23, %19
  store i32 0, ptr %5, align 4
  br label %33

33:                                               ; preds = %32, %27, %18, %13
  %34 = load i32, ptr %5, align 4
  ret i32 %34
}

; Function Attrs: nounwind uwtable
define internal i32 @qsort_partition_hbound_cmp(ptr noundef %0, ptr noundef %1) #0 {
  %3 = alloca ptr, align 8
  %4 = alloca ptr, align 8
  %5 = alloca ptr, align 8
  %6 = alloca ptr, align 8
  store ptr %0, ptr %3, align 8
  store ptr %1, ptr %4, align 8
  call void @llvm.lifetime.start.p0(i64 8, ptr %5) #9
  %7 = load ptr, ptr %3, align 8
  store ptr %7, ptr %5, align 8
  call void @llvm.lifetime.start.p0(i64 8, ptr %6) #9
  %8 = load ptr, ptr %4, align 8
  store ptr %8, ptr %6, align 8
  %9 = load ptr, ptr %5, align 8
  %10 = getelementptr inbounds nuw %struct.PartitionHashBound, ptr %9, i32 0, i32 0
  %11 = load i32, ptr %10, align 4
  %12 = load ptr, ptr %5, align 8
  %13 = getelementptr inbounds nuw %struct.PartitionHashBound, ptr %12, i32 0, i32 1
  %14 = load i32, ptr %13, align 4
  %15 = load ptr, ptr %6, align 8
  %16 = getelementptr inbounds nuw %struct.PartitionHashBound, ptr %15, i32 0, i32 0
  %17 = load i32, ptr %16, align 4
  %18 = load ptr, ptr %6, align 8
  %19 = getelementptr inbounds nuw %struct.PartitionHashBound, ptr %18, i32 0, i32 1
  %20 = load i32, ptr %19, align 4
  %21 = call i32 @partition_hbound_cmp(i32 noundef %11, i32 noundef %14, i32 noundef %17, i32 noundef %20)
  call void @llvm.lifetime.end.p0(i64 8, ptr %6) #9
  call void @llvm.lifetime.end.p0(i64 8, ptr %5) #9
  ret i32 %21
}