; Function Attrs: mustprogress nofree norecurse nosync nounwind willreturn memory(argmem: read) uwtable
define internal range(i32 -1, 2) i32 @qsort_partition_hbound_cmp(ptr noundef readonly captures(none) %0, ptr noundef readonly captures(none) %1) #7 {
  %3 = load i32, ptr %0, align 4
  %4 = getelementptr inbounds nuw i8, ptr %0, i64 4
  %5 = load i32, ptr %4, align 4
  %6 = load i32, ptr %1, align 4
  %7 = getelementptr inbounds nuw i8, ptr %1, i64 4
  %8 = load i32, ptr %7, align 4
  %9 = icmp slt i32 %3, %6
  br i1 %9, label %partition_hbound_cmp.exit, label %10

10:                                               ; preds = %2
  %11 = icmp sgt i32 %3, %6
  br i1 %11, label %partition_hbound_cmp.exit, label %12

12:                                               ; preds = %10
  %13 = icmp ne i32 %3, %6
  %.not.i = icmp eq i32 %5, %8
  %or.cond.i = or i1 %13, %.not.i
  br i1 %or.cond.i, label %partition_hbound_cmp.exit, label %14

14:                                               ; preds = %12
  %15 = icmp sgt i32 %5, %8
  %16 = select i1 %15, i32 1, i32 -1
  br label %partition_hbound_cmp.exit

partition_hbound_cmp.exit:                        ; preds = %2, %10, %12, %14
  %.0.i = phi i32 [ %16, %14 ], [ -1, %2 ], [ 1, %10 ], [ 0, %12 ]
  ret i32 %.0.i
}